; Function Attrs: mustprogress nofree norecurse nosync nounwind willreturn memory(read, argmem: readwrite, inaccessiblemem: none) uwtable
define dso_local void @stbtt_GetCodepointHMetrics(ptr noundef readonly captures(none) %0, i32 noundef %1, ptr noundef writeonly %2, ptr noundef writeonly %3) local_unnamed_addr #4 {
  %5 = tail call i32 @stbtt_FindGlyphIndex(ptr noundef %0, i32 noundef %1)
  %6 = getelementptr inbounds nuw i8, ptr %0, i64 8
  %7 = load ptr, ptr %6, align 8
  %8 = getelementptr inbounds nuw i8, ptr %0, i64 36
  %9 = load i32, ptr %8, align 4
  %10 = sext i32 %9 to i64
  %11 = getelementptr inbounds i8, ptr %7, i64 %10
  %12 = getelementptr inbounds nuw i8, ptr %11, i64 34
  %.val.i = load i8, ptr %12, align 1
  %13 = getelementptr i8, ptr %11, i64 35
  %.val33.i = load i8, ptr %13, align 1
  %14 = zext i8 %.val.i to i32
  %15 = shl nuw nsw i32 %14, 8
  %16 = zext i8 %.val33.i to i32
  %17 = or disjoint i32 %15, %16
  %18 = icmp slt i32 %5, %17
  %.not31.i = icmp eq ptr %2, null
  br i1 %18, label %19, label %46

19:                                               ; preds = %4
  br i1 %.not31.i, label %34, label %20

20:                                               ; preds = %19
  %21 = getelementptr inbounds nuw i8, ptr %0, i64 40
  %22 = load i32, ptr %21, align 8
  %23 = sext i32 %22 to i64
  %24 = getelementptr inbounds i8, ptr %7, i64 %23
  %25 = shl nsw i32 %5, 2
  %26 = sext i32 %25 to i64
  %27 = getelementptr inbounds i8, ptr %24, i64 %26
  %.val40.i = load i8, ptr %27, align 1
  %28 = getelementptr i8, ptr %27, i64 1
  %.val41.i = load i8, ptr %28, align 1
  %29 = zext i8 %.val40.i to i16
  %30 = shl nuw i16 %29, 8
  %31 = zext i8 %.val41.i to i16
  %32 = or disjoint i16 %30, %31
  %33 = sext i16 %32 to i32
  store i32 %33, ptr %2, align 4
  br label %34

34:                                               ; preds = %20, %19
  %.not32.i = icmp eq ptr %3, null
  br i1 %.not32.i, label %stbtt_GetGlyphHMetrics.exit, label %35

35:                                               ; preds = %34
  %36 = load ptr, ptr %6, align 8
  %37 = getelementptr inbounds nuw i8, ptr %0, i64 40
  %38 = load i32, ptr %37, align 8
  %39 = sext i32 %38 to i64
  %40 = getelementptr inbounds i8, ptr %36, i64 %39
  %41 = shl nsw i32 %5, 2
  %42 = sext i32 %41 to i64
  %43 = getelementptr inbounds i8, ptr %40, i64 %42
  %44 = getelementptr inbounds nuw i8, ptr %43, i64 2
  %45 = getelementptr i8, ptr %43, i64 3
  br label %.sink.split.i

46:                                               ; preds = %4
  br i1 %.not31.i, label %62, label %47

47:                                               ; preds = %46
  %48 = getelementptr inbounds nuw i8, ptr %0, i64 40
  %49 = load i32, ptr %48, align 8
  %50 = sext i32 %49 to i64
  %51 = getelementptr inbounds i8, ptr %7, i64 %50
  %52 = shl nuw nsw i32 %17, 2
  %53 = zext nneg i32 %52 to i64
  %54 = getelementptr i8, ptr %51, i64 %53
  %55 = getelementptr i8, ptr %54, i64 -4
  %.val36.i = load i8, ptr %55, align 1
  %56 = getelementptr i8, ptr %54, i64 -3
  %.val37.i = load i8, ptr %56, align 1
  %57 = zext i8 %.val36.i to i16
  %58 = shl nuw i16 %57, 8
  %59 = zext i8 %.val37.i to i16
  %60 = or disjoint i16 %58, %59
  %61 = sext i16 %60 to i32
  store i32 %61, ptr %2, align 4
  br label %62

62:                                               ; preds = %47, %46
  %.not30.i = icmp eq ptr %3, null
  br i1 %.not30.i, label %stbtt_GetGlyphHMetrics.exit, label %63

63:                                               ; preds = %62
  %64 = load ptr, ptr %6, align 8
  %65 = getelementptr inbounds nuw i8, ptr %0, i64 40
  %66 = load i32, ptr %65, align 8
  %67 = sext i32 %66 to i64
  %68 = getelementptr inbounds i8, ptr %64, i64 %67
  %69 = shl nuw nsw i32 %17, 2
  %70 = zext nneg i32 %69 to i64
  %71 = getelementptr inbounds nuw i8, ptr %68, i64 %70
  %72 = sub nsw i32 %5, %17
  %73 = shl nsw i32 %72, 1
  %74 = sext i32 %73 to i64
  %75 = getelementptr inbounds i8, ptr %71, i64 %74
  %76 = getelementptr i8, ptr %75, i64 1
  br label %.sink.split.i

.sink.split.i:                                    ; preds = %63, %35
  %.val34.sink.in.i = phi ptr [ %75, %63 ], [ %44, %35 ]
  %.val35.sink.in.i = phi ptr [ %76, %63 ], [ %45, %35 ]
  %.val35.sink.i = load i8, ptr %.val35.sink.in.i, align 1
  %.val34.sink.i = load i8, ptr %.val34.sink.in.i, align 1
  %77 = zext i8 %.val34.sink.i to i16
  %78 = shl nuw i16 %77, 8
  %79 = zext i8 %.val35.sink.i to i16
  %80 = or disjoint i16 %78, %79
  %81 = sext i16 %80 to i32
  store i32 %81, ptr %3, align 4
  br label %stbtt_GetGlyphHMetrics.exit

stbtt_GetGlyphHMetrics.exit:                      ; preds = %34, %62, %.sink.split.i
  ret void
}